; ModuleID = '42/491.c'
source_filename = "42/491.c"
target datalayout = "e-m:e-p270:32:32-p271:32:32-p272:64:64-i64:64-f80:128-n8:16:32:64-S128"
target triple = "x86_64-pc-linux-gnu"

@.str = private unnamed_addr constant [4 x i8] c"%d\0A\00", align 1
@.str.1 = private unnamed_addr constant [4 x i8] c"%ld\00", align 1
@.str.2 = private unnamed_addr constant [5 x i8] c" %ld\00", align 1

; Function Attrs: noinline nounwind uwtable
define dso_local void @main() #0 {
  %1 = alloca i32, align 4
  %2 = alloca i32, align 4
  %3 = alloca i32, align 4
  %4 = alloca i32, align 4
  %5 = alloca i32, align 4
  %6 = alloca i32, align 4
  %7 = alloca [100000 x i64], align 16
  %8 = alloca i64, align 8
  store i32 0, i32* %4, align 4
  store i32 0, i32* %5, align 4
  store i32 0, i32* %6, align 4
  %9 = call i32 (i8*, ...) @__isoc99_scanf(i8* getelementptr inbounds ([4 x i8], [4 x i8]* @.str, i64 0, i64 0), i32* %1)
  store i32 0, i32* %2, align 4
  br label %10

10:                                               ; preds = %19, %0
  %11 = load i32, i32* %2, align 4
  %12 = load i32, i32* %1, align 4
  %13 = icmp slt i32 %11, %12
  br i1 %13, label %14, label %22

14:                                               ; preds = %10
  %15 = load i32, i32* %2, align 4
  %16 = sext i32 %15 to i64
  %17 = getelementptr inbounds [100000 x i64], [100000 x i64]* %7, i64 0, i64 %16
  %18 = call i32 (i8*, ...) @__isoc99_scanf(i8* getelementptr inbounds ([4 x i8], [4 x i8]* @.str.1, i64 0, i64 0), i64* %17)
  br label %19

19:                                               ; preds = %14
  %20 = load i32, i32* %2, align 4
  %21 = add nsw i32 %20, 1
  store i32 %21, i32* %2, align 4
  br label %10

22:                                               ; preds = %10
  %23 = call i32 (i8*, ...) @__isoc99_scanf(i8* getelementptr inbounds ([4 x i8], [4 x i8]* @.str.1, i64 0, i64 0), i64* %8)
  store i32 0, i32* %2, align 4
  br label %24

24:                                               ; preds = %43, %22
  %25 = load i32, i32* %2, align 4
  %26 = load i32, i32* %1, align 4
  %27 = icmp slt i32 %25, %26
  br i1 %27, label %28, label %46

28:                                               ; preds = %24
  %29 = load i32, i32* %2, align 4
  %30 = sext i32 %29 to i64
  %31 = getelementptr inbounds [100000 x i64], [100000 x i64]* %7, i64 0, i64 %30
  %32 = load i64, i64* %31, align 8
  %33 = load i64, i64* %8, align 8
  %34 = icmp ne i64 %32, %33
  br i1 %34, label %35, label %42

35:                                               ; preds = %28
  %36 = load i32, i32* %2, align 4
  %37 = sext i32 %36 to i64
  %38 = getelementptr inbounds [100000 x i64], [100000 x i64]* %7, i64 0, i64 %37
  %39 = load i64, i64* %38, align 8
  %40 = call i32 (i8*, ...) @printf(i8* getelementptr inbounds ([4 x i8], [4 x i8]* @.str.1, i64 0, i64 0), i64 %39)
  %41 = load i32, i32* %2, align 4
  store i32 %41, i32* %6, align 4
  br label %46

42:                                               ; preds = %28
  br label %43

43:                                               ; preds = %42
  %44 = load i32, i32* %2, align 4
  %45 = add nsw i32 %44, 1
  store i32 %45, i32* %2, align 4
  br label %24

46:                                               ; preds = %35, %24
  %47 = load i32, i32* %6, align 4
  %48 = add nsw i32 %47, 1
  store i32 %48, i32* %3, align 4
  br label %49

49:                                               ; preds = %87, %46
  %50 = load i32, i32* %3, align 4
  %51 = load i32, i32* %1, align 4
  %52 = icmp slt i32 %50, %51
  br i1 %52, label %53, label %90

53:                                               ; preds = %49
  %54 = load i32, i32* %3, align 4
  %55 = sext i32 %54 to i64
  %56 = getelementptr inbounds [100000 x i64], [100000 x i64]* %7, i64 0, i64 %55
  %57 = load i64, i64* %56, align 8
  %58 = load i64, i64* %8, align 8
  %59 = icmp eq i64 %57, %58
  br i1 %59, label %60, label %86

60:                                               ; preds = %53
  %61 = load i32, i32* %3, align 4
  store i32 %61, i32* %5, align 4
  br label %62

62:                                               ; preds = %76, %60
  %63 = load i32, i32* %5, align 4
  %64 = load i32, i32* %1, align 4
  %65 = sub nsw i32 %64, 1
  %66 = icmp slt i32 %63, %65
  br i1 %66, label %67, label %79

67:                                               ; preds = %62
  %68 = load i32, i32* %5, align 4
  %69 = add nsw i32 %68, 1
  %70 = sext i32 %69 to i64
  %71 = getelementptr inbounds [100000 x i64], [100000 x i64]* %7, i64 0, i64 %70
  %72 = load i64, i64* %71, align 8
  %73 = load i32, i32* %5, align 4
  %74 = sext i32 %73 to i64
  %75 = getelementptr inbounds [100000 x i64], [100000 x i64]* %7, i64 0, i64 %74
  store i64 %72, i64* %75, align 8
  br label %76

76:                                               ; preds = %67
  %77 = load i32, i32* %5, align 4
  %78 = add nsw i32 %77, 1
  store i32 %78, i32* %5, align 4
  br label %62

79:                                               ; preds = %62
  %80 = load i32, i32* %1, align 4
  %81 = sub nsw i32 %80, 1
  %82 = sext i32 %81 to i64
  %83 = getelementptr inbounds [100000 x i64], [100000 x i64]* %7, i64 0, i64 %82
  store i64 32, i64* %83, align 8
  %84 = load i32, i32* %3, align 4
  %85 = sub nsw i32 %84, 1
  store i32 %85, i32* %3, align 4
  br label %86

86:                                               ; preds = %79, %53
  br label %87

87:                                               ; preds = %86
  %88 = load i32, i32* %3, align 4
  %89 = add nsw i32 %88, 1
  store i32 %89, i32* %3, align 4
  br label %49

90:                                               ; preds = %49
  %91 = load i32, i32* %6, align 4
  %92 = add nsw i32 %91, 1
  store i32 %92, i32* %2, align 4
  br label %93

93:                                               ; preds = %111, %90
  %94 = load i32, i32* %2, align 4
  %95 = load i32, i32* %1, align 4
  %96 = icmp slt i32 %94, %95
  br i1 %96, label %97, label %114

97:                                               ; preds = %93
  %98 = load i32, i32* %2, align 4
  %99 = sext i32 %98 to i64
  %100 = getelementptr inbounds [100000 x i64], [100000 x i64]* %7, i64 0, i64 %99
  %101 = load i64, i64* %100, align 8
  %102 = icmp ne i64 %101, 32
  br i1 %102, label %103, label %109

103:                                              ; preds = %97
  %104 = load i32, i32* %2, align 4
  %105 = sext i32 %104 to i64
  %106 = getelementptr inbounds [100000 x i64], [100000 x i64]* %7, i64 0, i64 %105
  %107 = load i64, i64* %106, align 8
  %108 = call i32 (i8*, ...) @printf(i8* getelementptr inbounds ([5 x i8], [5 x i8]* @.str.2, i64 0, i64 0), i64 %107)
  br label %110

109:                                              ; preds = %97
  br label %114

110:                                              ; preds = %103
  br label %111

111:                                              ; preds = %110
  %112 = load i32, i32* %2, align 4
  %113 = add nsw i32 %112, 1
  store i32 %113, i32* %2, align 4
  br label %93

114:                                              ; preds = %109, %93
  ret void
}

declare dso_local i32 @__isoc99_scanf(i8*, ...) #1

declare dso_local i32 @printf(i8*, ...) #1


!llvm.module.flags = !{!0}
!llvm.ident = !{!1}

!0 = !{i32 1, !"wchar_size", i32 4}
!1 = !{!"clang version 10.0.0-4ubuntu1 "}
